; Function Attrs: mustprogress uwtable
define noundef zeroext i1 @_ZN32pxrInternal_v0_24__pxrReserved__17UsdSchemaRegistry25IsAllowedSchemaIdentifierERKNS_7TfTokenE(ptr nocapture noundef nonnull readonly align 8 dereferenceable(8) %0) local_unnamed_addr #0 align 2 personality ptr @__gxx_personality_v0 {
  %2 = alloca %"struct.std::pair", align 8
  %3 = alloca %"class.pxrInternal_v0_24__pxrReserved__::TfToken", align 8
  call void @_ZN32pxrInternal_v0_24__pxrReserved__17UsdSchemaRegistry41ParseSchemaFamilyAndVersionFromIdentifierERKNS_7TfTokenE(ptr dead_on_unwind nonnull writable sret(%"struct.std::pair") align 8 %2, ptr noundef nonnull align 8 dereferenceable(8) %0)
  %4 = invoke noundef zeroext i1 @_ZN32pxrInternal_v0_24__pxrReserved__17UsdSchemaRegistry21IsAllowedSchemaFamilyERKNS_7TfTokenE(ptr noundef nonnull align 8 dereferenceable(8) %2)
          to label %5 unwind label %30

5:                                                ; preds = %1
  br i1 %4, label %6, label %_ZN32pxrInternal_v0_24__pxrReserved__7TfTokenD2Ev.exit

6:                                                ; preds = %5
  %7 = getelementptr inbounds nuw i8, ptr %2, i64 8
  %8 = load i32, ptr %7, align 8
  invoke void @_ZN32pxrInternal_v0_24__pxrReserved__17UsdSchemaRegistry39MakeSchemaIdentifierForFamilyAndVersionERKNS_7TfTokenEj(ptr dead_on_unwind nonnull writable sret(%"class.pxrInternal_v0_24__pxrReserved__::TfToken") align 8 %3, ptr noundef nonnull align 8 dereferenceable(8) %2, i32 noundef %8)
          to label %9 unwind label %30

9:                                                ; preds = %6
  %10 = load ptr, ptr %3, align 8
  %11 = ptrtoint ptr %10 to i64
  %12 = and i64 %11, -8
  %13 = inttoptr i64 %12 to ptr
  %14 = load ptr, ptr %0, align 8
  %15 = ptrtoint ptr %14 to i64
  %16 = and i64 %15, -8
  %17 = inttoptr i64 %16 to ptr
  %18 = icmp eq ptr %13, %17
  %19 = and i64 %11, 7
  %.not.i.i = icmp eq i64 %19, 0
  br i1 %.not.i.i, label %_ZN32pxrInternal_v0_24__pxrReserved__7TfTokenD2Ev.exit, label %20

20:                                               ; preds = %9
  %21 = atomicrmw sub ptr %13, i32 2 release, align 4
  br label %_ZN32pxrInternal_v0_24__pxrReserved__7TfTokenD2Ev.exit

_ZN32pxrInternal_v0_24__pxrReserved__7TfTokenD2Ev.exit: ; preds = %20, %9, %5
  %22 = phi i1 [ false, %5 ], [ %18, %9 ], [ %18, %20 ]
  %23 = load ptr, ptr %2, align 8
  %24 = ptrtoint ptr %23 to i64
  %25 = and i64 %24, 7
  %.not.i.i.i = icmp eq i64 %25, 0
  br i1 %.not.i.i.i, label %_ZNSt4pairIN32pxrInternal_v0_24__pxrReserved__7TfTokenEjED2Ev.exit, label %26

26:                                               ; preds = %_ZN32pxrInternal_v0_24__pxrReserved__7TfTokenD2Ev.exit
  %27 = and i64 %24, -8
  %28 = inttoptr i64 %27 to ptr
  %29 = atomicrmw sub ptr %28, i32 2 release, align 4
  br label %_ZNSt4pairIN32pxrInternal_v0_24__pxrReserved__7TfTokenEjED2Ev.exit

_ZNSt4pairIN32pxrInternal_v0_24__pxrReserved__7TfTokenEjED2Ev.exit: ; preds = %_ZN32pxrInternal_v0_24__pxrReserved__7TfTokenD2Ev.exit, %26
  ret i1 %22

30:                                               ; preds = %6, %1
  %31 = landingpad { ptr, i32 }
          cleanup
  %32 = load ptr, ptr %2, align 8
  %33 = ptrtoint ptr %32 to i64
  %34 = and i64 %33, 7
  %.not.i.i.i5 = icmp eq i64 %34, 0
  br i1 %.not.i.i.i5, label %_ZNSt4pairIN32pxrInternal_v0_24__pxrReserved__7TfTokenEjED2Ev.exit6, label %35

35:                                               ; preds = %30
  %36 = and i64 %33, -8
  %37 = inttoptr i64 %36 to ptr
  %38 = atomicrmw sub ptr %37, i32 2 release, align 4
  br label %_ZNSt4pairIN32pxrInternal_v0_24__pxrReserved__7TfTokenEjED2Ev.exit6

_ZNSt4pairIN32pxrInternal_v0_24__pxrReserved__7TfTokenEjED2Ev.exit6: ; preds = %30, %35
  resume { ptr, i32 } %31
}